target datalayout = "e-m:e-p270:32:32-p271:32:32-p272:64:64-i64:64-i128:128-f80:128-n8:16:32:64-S128"
target triple = "x86_64-pc-linux-gnu"

%struct.H5R_ref_priv_t = type { %union.anon, i64, i32, i8, i8, i8 }
%union.anon = type { %struct.H5R_ref_priv_reg_t }
%struct.H5R_ref_priv_reg_t = type { %struct.H5R_ref_priv_obj_t, ptr }
%struct.H5R_ref_priv_obj_t = type { %struct.H5O_token_t, ptr }
%struct.H5O_token_t = type { [16 x i8] }
%struct.H5R_ref_priv_attr_t = type { %struct.H5R_ref_priv_obj_t, ptr }

@H5R_init_g = global i8 0, align 1
@H5_libterm_g = external global i8, align 1
@.str = private unnamed_addr constant [100 x i8] c"generated/home/dtcxzyw/WorkSpace/Projects/compilers/llvm-opt-benchmark/bench/hdf5/hdf5/src/H5Rint.c\00", align 1
@H5E_REFERENCE_g = external global i64, align 8
@__func__.H5R__destroy = private unnamed_addr constant [13 x i8] c"H5R__destroy\00", align 1
@H5E_CANTFREE_g = external global i64, align 8
@.str.6 = private unnamed_addr constant [23 x i8] c"Cannot close dataspace\00", align 1
@H5E_UNSUPPORTED_g = external global i64, align 8
@.str.7 = private unnamed_addr constant [40 x i8] c"internal error (invalid reference type)\00", align 1
@.str.8 = private unnamed_addr constant [40 x i8] c"internal error (unknown reference type)\00", align 1
@H5E_CANTDEC_g = external global i64, align 8
@.str.9 = private unnamed_addr constant [32 x i8] c"decrementing location ID failed\00", align 1

; Function Attrs: nounwind uwtable
define i32 @H5R__destroy(ptr noundef %0) #0 {
  %2 = alloca ptr, align 8
  %3 = alloca i32, align 4
  %4 = alloca i8, align 1
  store ptr %0, ptr %2, align 8, !tbaa !14
  call void @llvm.lifetime.start.p0(i64 4, ptr %3) #9
  store i32 0, ptr %3, align 4, !tbaa !16
  call void @llvm.lifetime.start.p0(i64 1, ptr %4) #9
  store i8 0, ptr %4, align 1, !tbaa !3
  %5 = load i8, ptr @H5R_init_g, align 1, !tbaa !3, !range !7, !noundef !8
  %6 = trunc i8 %5 to i1
  br i1 %6, label %11, label %7

7:                                                ; preds = %1
  %8 = load i8, ptr @H5_libterm_g, align 1, !tbaa !3, !range !7, !noundef !8
  %9 = trunc i8 %8 to i1
  %10 = xor i1 %9, true
  br label %11

11:                                               ; preds = %7, %1
  %12 = phi i1 [ true, %1 ], [ %10, %7 ]
  %13 = xor i1 %12, true
  %14 = xor i1 %13, true
  %15 = zext i1 %14 to i32
  %16 = sext i32 %15 to i64
  %17 = call i64 @llvm.expect.i64(i64 %16, i64 1)
  %18 = icmp ne i64 %17, 0
  br i1 %18, label %19, label %184

19:                                               ; preds = %11
  br label %20

20:                                               ; preds = %19
  br label %21

21:                                               ; preds = %20
  br label %22

22:                                               ; preds = %21
  %23 = load ptr, ptr %2, align 8, !tbaa !14
  %24 = getelementptr inbounds nuw %struct.H5R_ref_priv_t, ptr %23, i32 0, i32 0
  %25 = getelementptr inbounds nuw %struct.H5R_ref_priv_obj_t, ptr %24, i32 0, i32 1
  %26 = load ptr, ptr %25, align 8, !tbaa !18
  %27 = call ptr @H5MM_xfree(ptr noundef %26)
  %28 = load ptr, ptr %2, align 8, !tbaa !14
  %29 = getelementptr inbounds nuw %struct.H5R_ref_priv_t, ptr %28, i32 0, i32 0
  %30 = getelementptr inbounds nuw %struct.H5R_ref_priv_obj_t, ptr %29, i32 0, i32 1
  store ptr null, ptr %30, align 8, !tbaa !18
  %31 = load ptr, ptr %2, align 8, !tbaa !14
  %32 = getelementptr inbounds nuw %struct.H5R_ref_priv_t, ptr %31, i32 0, i32 3
  %33 = load i8, ptr %32, align 4, !tbaa !21
  %34 = sext i8 %33 to i32
  switch i32 %34, label %94 [
    i32 2, label %113
    i32 3, label %35
    i32 4, label %65
    i32 0, label %74
    i32 1, label %74
    i32 -1, label %75
    i32 5, label %75
  ]

35:                                               ; preds = %22
  %36 = load ptr, ptr %2, align 8, !tbaa !14
  %37 = getelementptr inbounds nuw %struct.H5R_ref_priv_t, ptr %36, i32 0, i32 0
  %38 = getelementptr inbounds nuw %struct.H5R_ref_priv_reg_t, ptr %37, i32 0, i32 1
  %39 = load ptr, ptr %38, align 8, !tbaa !18
  %40 = call i32 @H5S_close(ptr noundef %39)
  %41 = icmp slt i32 %40, 0
  br i1 %41, label %42, label %61

42:                                               ; preds = %35
  br label %43

43:                                               ; preds = %42
  br label %44

44:                                               ; preds = %43
  br label %45

45:                                               ; preds = %44
  %46 = load i64, ptr @H5E_REFERENCE_g, align 8, !tbaa !12
  %47 = load i64, ptr @H5E_CANTFREE_g, align 8, !tbaa !12
  %48 = call i32 (ptr, ptr, i32, i64, i64, ptr, ...) @H5E_printf_stack(ptr noundef @.str, ptr noundef @__func__.H5R__destroy, i32 noundef 341, i64 noundef %46, i64 noundef %47, ptr noundef @.str.6)
  br label %49

49:                                               ; preds = %45
  br label %50

50:                                               ; preds = %49
  store i8 1, ptr %4, align 1, !tbaa !3
  %51 = load i8, ptr %4, align 1, !tbaa !3, !range !7, !noundef !8
  %52 = trunc i8 %51 to i1
  %53 = zext i1 %52 to i8
  store i8 %53, ptr %4, align 1, !tbaa !3
  br label %54

54:                                               ; preds = %50
  br label %55

55:                                               ; preds = %54
  br label %56

56:                                               ; preds = %55
  store i32 -1, ptr %3, align 4, !tbaa !16
  br label %183

57:                                               ; No predecessors!
  br label %58

58:                                               ; preds = %57
  br label %59

59:                                               ; preds = %58
  br label %60

60:                                               ; preds = %59
  br label %61

61:                                               ; preds = %60, %35
  %62 = load ptr, ptr %2, align 8, !tbaa !14
  %63 = getelementptr inbounds nuw %struct.H5R_ref_priv_t, ptr %62, i32 0, i32 0
  %64 = getelementptr inbounds nuw %struct.H5R_ref_priv_reg_t, ptr %63, i32 0, i32 1
  store ptr null, ptr %64, align 8, !tbaa !18
  br label %113

65:                                               ; preds = %22
  %66 = load ptr, ptr %2, align 8, !tbaa !14
  %67 = getelementptr inbounds nuw %struct.H5R_ref_priv_t, ptr %66, i32 0, i32 0
  %68 = getelementptr inbounds nuw %struct.H5R_ref_priv_attr_t, ptr %67, i32 0, i32 1
  %69 = load ptr, ptr %68, align 8, !tbaa !18
  %70 = call ptr @H5MM_xfree(ptr noundef %69)
  %71 = load ptr, ptr %2, align 8, !tbaa !14
  %72 = getelementptr inbounds nuw %struct.H5R_ref_priv_t, ptr %71, i32 0, i32 0
  %73 = getelementptr inbounds nuw %struct.H5R_ref_priv_attr_t, ptr %72, i32 0, i32 1
  store ptr null, ptr %73, align 8, !tbaa !18
  br label %113

74:                                               ; preds = %22, %22
  br label %113

75:                                               ; preds = %22, %22
  br label %76

76:                                               ; preds = %75
  br label %77

77:                                               ; preds = %76
  br label %78

78:                                               ; preds = %77
  %79 = load i64, ptr @H5E_REFERENCE_g, align 8, !tbaa !12
  %80 = load i64, ptr @H5E_UNSUPPORTED_g, align 8, !tbaa !12
  %81 = call i32 (ptr, ptr, i32, i64, i64, ptr, ...) @H5E_printf_stack(ptr noundef @.str, ptr noundef @__func__.H5R__destroy, i32 noundef 356, i64 noundef %79, i64 noundef %80, ptr noundef @.str.7)
  br label %82

82:                                               ; preds = %78
  br label %83

83:                                               ; preds = %82
  store i8 1, ptr %4, align 1, !tbaa !3
  %84 = load i8, ptr %4, align 1, !tbaa !3, !range !7, !noundef !8
  %85 = trunc i8 %84 to i1
  %86 = zext i1 %85 to i8
  store i8 %86, ptr %4, align 1, !tbaa !3
  br label %87

87:                                               ; preds = %83
  br label %88

88:                                               ; preds = %87
  br label %89

89:                                               ; preds = %88
  store i32 -1, ptr %3, align 4, !tbaa !16
  br label %183

90:                                               ; No predecessors!
  br label %91

91:                                               ; preds = %90
  br label %92

92:                                               ; preds = %91
  br label %93

93:                                               ; preds = %92
  br label %94

94:                                               ; preds = %22, %93
  br label %95

95:                                               ; preds = %94
  br label %96

96:                                               ; preds = %95
  br label %97

97:                                               ; preds = %96
  %98 = load i64, ptr @H5E_REFERENCE_g, align 8, !tbaa !12
  %99 = load i64, ptr @H5E_UNSUPPORTED_g, align 8, !tbaa !12
  %100 = call i32 (ptr, ptr, i32, i64, i64, ptr, ...) @H5E_printf_stack(ptr noundef @.str, ptr noundef @__func__.H5R__destroy, i32 noundef 360, i64 noundef %98, i64 noundef %99, ptr noundef @.str.8)
  br label %101

101:                                              ; preds = %97
  br label %102

102:                                              ; preds = %101
  store i8 1, ptr %4, align 1, !tbaa !3
  %103 = load i8, ptr %4, align 1, !tbaa !3, !range !7, !noundef !8
  %104 = trunc i8 %103 to i1
  %105 = zext i1 %104 to i8
  store i8 %105, ptr %4, align 1, !tbaa !3
  br label %106

106:                                              ; preds = %102
  br label %107

107:                                              ; preds = %106
  br label %108

108:                                              ; preds = %107
  store i32 -1, ptr %3, align 4, !tbaa !16
  br label %183

109:                                              ; No predecessors!
  br label %110

110:                                              ; preds = %109
  br label %111

111:                                              ; preds = %110
  br label %112

112:                                              ; preds = %111
  br label %113

113:                                              ; preds = %112, %74, %65, %61, %22
  %114 = load ptr, ptr %2, align 8, !tbaa !14
  %115 = getelementptr inbounds nuw %struct.H5R_ref_priv_t, ptr %114, i32 0, i32 3
  %116 = load i8, ptr %115, align 4, !tbaa !21
  %117 = sext i8 %116 to i32
  %118 = icmp ne i32 %117, 0
  br i1 %118, label %119, label %182

119:                                              ; preds = %113
  %120 = load ptr, ptr %2, align 8, !tbaa !14
  %121 = getelementptr inbounds nuw %struct.H5R_ref_priv_t, ptr %120, i32 0, i32 1
  %122 = load i64, ptr %121, align 8, !tbaa !19
  %123 = icmp ne i64 %122, -1
  br i1 %123, label %124, label %182

124:                                              ; preds = %119
  %125 = load ptr, ptr %2, align 8, !tbaa !14
  %126 = getelementptr inbounds nuw %struct.H5R_ref_priv_t, ptr %125, i32 0, i32 5
  %127 = load i8, ptr %126, align 2, !tbaa !30, !range !7, !noundef !8
  %128 = trunc i8 %127 to i1
  br i1 %128, label %129, label %155

129:                                              ; preds = %124
  %130 = load ptr, ptr %2, align 8, !tbaa !14
  %131 = getelementptr inbounds nuw %struct.H5R_ref_priv_t, ptr %130, i32 0, i32 1
  %132 = load i64, ptr %131, align 8, !tbaa !19
  %133 = call i32 @H5I_dec_app_ref(i64 noundef %132)
  %134 = icmp slt i32 %133, 0
  br i1 %134, label %135, label %154

135:                                              ; preds = %129
  br label %136

136:                                              ; preds = %135
  br label %137

137:                                              ; preds = %136
  br label %138

138:                                              ; preds = %137
  %139 = load i64, ptr @H5E_REFERENCE_g, align 8, !tbaa !12
  %140 = load i64, ptr @H5E_CANTDEC_g, align 8, !tbaa !12
  %141 = call i32 (ptr, ptr, i32, i64, i64, ptr, ...) @H5E_printf_stack(ptr noundef @.str, ptr noundef @__func__.H5R__destroy, i32 noundef 367, i64 noundef %139, i64 noundef %140, ptr noundef @.str.9)
  br label %142

142:                                              ; preds = %138
  br label %143

143:                                              ; preds = %142
  store i8 1, ptr %4, align 1, !tbaa !3
  %144 = load i8, ptr %4, align 1, !tbaa !3, !range !7, !noundef !8
  %145 = trunc i8 %144 to i1
  %146 = zext i1 %145 to i8
  store i8 %146, ptr %4, align 1, !tbaa !3
  br label %147

147:                                              ; preds = %143
  br label %148

148:                                              ; preds = %147
  br label %149

149:                                              ; preds = %148
  store i32 -1, ptr %3, align 4, !tbaa !16
  br label %183

150:                                              ; No predecessors!
  br label %151

151:                                              ; preds = %150
  br label %152

152:                                              ; preds = %151
  br label %153

153:                                              ; preds = %152
  br label %154

154:                                              ; preds = %153, %129
  br label %181

155:                                              ; preds = %124
  %156 = load ptr, ptr %2, align 8, !tbaa !14
  %157 = getelementptr inbounds nuw %struct.H5R_ref_priv_t, ptr %156, i32 0, i32 1
  %158 = load i64, ptr %157, align 8, !tbaa !19
  %159 = call i32 @H5I_dec_ref(i64 noundef %158)
  %160 = icmp slt i32 %159, 0
  br i1 %160, label %161, label %180

161:                                              ; preds = %155
  br label %162

162:                                              ; preds = %161
  br label %163

163:                                              ; preds = %162
  br label %164

164:                                              ; preds = %163
  %165 = load i64, ptr @H5E_REFERENCE_g, align 8, !tbaa !12
  %166 = load i64, ptr @H5E_CANTDEC_g, align 8, !tbaa !12
  %167 = call i32 (ptr, ptr, i32, i64, i64, ptr, ...) @H5E_printf_stack(ptr noundef @.str, ptr noundef @__func__.H5R__destroy, i32 noundef 371, i64 noundef %165, i64 noundef %166, ptr noundef @.str.9)
  br label %168

168:                                              ; preds = %164
  br label %169

169:                                              ; preds = %168
  store i8 1, ptr %4, align 1, !tbaa !3
  %170 = load i8, ptr %4, align 1, !tbaa !3, !range !7, !noundef !8
  %171 = trunc i8 %170 to i1
  %172 = zext i1 %171 to i8
  store i8 %172, ptr %4, align 1, !tbaa !3
  br label %173

173:                                              ; preds = %169
  br label %174

174:                                              ; preds = %173
  br label %175

175:                                              ; preds = %174
  store i32 -1, ptr %3, align 4, !tbaa !16
  br label %183

176:                                              ; No predecessors!
  br label %177

177:                                              ; preds = %176
  br label %178

178:                                              ; preds = %177
  br label %179

179:                                              ; preds = %178
  br label %180

180:                                              ; preds = %179, %155
  br label %181

181:                                              ; preds = %180, %154
  br label %182

182:                                              ; preds = %181, %119, %113
  br label %183

183:                                              ; preds = %182, %175, %149, %108, %89, %56
  br label %184

184:                                              ; preds = %183, %11
  %185 = load i32, ptr %3, align 4, !tbaa !16
  call void @llvm.lifetime.end.p0(i64 1, ptr %4) #9
  call void @llvm.lifetime.end.p0(i64 4, ptr %3) #9
  ret i32 %185
}