; Function Attrs: nounwind uwtable
define range(i32 -1, 1) i32 @H5R__destroy(ptr noundef captures(none) %0) local_unnamed_addr #1 {
  %2 = load i8, ptr @H5R_init_g, align 1, !tbaa !3, !range !7, !noundef !8
  %3 = trunc nuw i8 %2 to i1
  %4 = load i8, ptr @H5_libterm_g, align 1, !range !7
  %5 = trunc nuw i8 %4 to i1
  %6 = xor i1 %5, true
  %7 = select i1 %3, i1 true, i1 %6
  br i1 %7, label %8, label %59, !prof !9

8:                                                ; preds = %1
  %9 = getelementptr inbounds nuw i8, ptr %0, i64 16
  %10 = load ptr, ptr %9, align 8, !tbaa !10
  %11 = tail call ptr @H5MM_xfree(ptr noundef %10) #15
  store ptr null, ptr %9, align 8, !tbaa !10
  %12 = getelementptr inbounds nuw i8, ptr %0, i64 44
  %13 = load i8, ptr %12, align 4, !tbaa !15
  switch i8 %13, label %32 [
    i8 2, label %36
    i8 3, label %14
    i8 4, label %24
    i8 0, label %36
    i8 1, label %36
    i8 -1, label %28
    i8 5, label %28
  ]

14:                                               ; preds = %8
  %15 = getelementptr inbounds nuw i8, ptr %0, i64 24
  %16 = load ptr, ptr %15, align 8, !tbaa !10
  %17 = tail call i32 @H5S_close(ptr noundef %16) #15
  %18 = icmp slt i32 %17, 0
  br i1 %18, label %19, label %23

19:                                               ; preds = %14
  %20 = load i64, ptr @H5E_REFERENCE_g, align 8, !tbaa !17
  %21 = load i64, ptr @H5E_CANTFREE_g, align 8, !tbaa !17
  %22 = tail call i32 (ptr, ptr, i32, i64, i64, ptr, ...) @H5E_printf_stack(ptr noundef nonnull @.str, ptr noundef nonnull @__func__.H5R__destroy, i32 noundef 341, i64 noundef %20, i64 noundef %21, ptr noundef nonnull @.str.6) #15
  br label %59

23:                                               ; preds = %14
  store ptr null, ptr %15, align 8, !tbaa !10
  br label %thread-pre-split

24:                                               ; preds = %8
  %25 = getelementptr inbounds nuw i8, ptr %0, i64 24
  %26 = load ptr, ptr %25, align 8, !tbaa !10
  %27 = tail call ptr @H5MM_xfree(ptr noundef %26) #15
  store ptr null, ptr %25, align 8, !tbaa !10
  br label %thread-pre-split

28:                                               ; preds = %8, %8
  %29 = load i64, ptr @H5E_REFERENCE_g, align 8, !tbaa !17
  %30 = load i64, ptr @H5E_UNSUPPORTED_g, align 8, !tbaa !17
  %31 = tail call i32 (ptr, ptr, i32, i64, i64, ptr, ...) @H5E_printf_stack(ptr noundef nonnull @.str, ptr noundef nonnull @__func__.H5R__destroy, i32 noundef 356, i64 noundef %29, i64 noundef %30, ptr noundef nonnull @.str.7) #15
  br label %59

32:                                               ; preds = %8
  %33 = load i64, ptr @H5E_REFERENCE_g, align 8, !tbaa !17
  %34 = load i64, ptr @H5E_UNSUPPORTED_g, align 8, !tbaa !17
  %35 = tail call i32 (ptr, ptr, i32, i64, i64, ptr, ...) @H5E_printf_stack(ptr noundef nonnull @.str, ptr noundef nonnull @__func__.H5R__destroy, i32 noundef 360, i64 noundef %33, i64 noundef %34, ptr noundef nonnull @.str.8) #15
  br label %59

thread-pre-split:                                 ; preds = %23, %24
  %.pr = load i8, ptr %12, align 4, !tbaa !15
  br label %36

36:                                               ; preds = %thread-pre-split, %8, %8, %8
  %37 = phi i8 [ %.pr, %thread-pre-split ], [ %13, %8 ], [ %13, %8 ], [ %13, %8 ]
  %.not = icmp eq i8 %37, 0
  br i1 %.not, label %59, label %38

38:                                               ; preds = %36
  %39 = getelementptr inbounds nuw i8, ptr %0, i64 32
  %40 = load i64, ptr %39, align 8, !tbaa !11
  %.not18 = icmp eq i64 %40, -1
  br i1 %.not18, label %59, label %41

41:                                               ; preds = %38
  %42 = getelementptr inbounds nuw i8, ptr %0, i64 46
  %43 = load i8, ptr %42, align 2, !tbaa !22, !range !7, !noundef !8
  %44 = trunc nuw i8 %43 to i1
  br i1 %44, label %45, label %52

45:                                               ; preds = %41
  %46 = tail call i32 @H5I_dec_app_ref(i64 noundef %40) #15
  %47 = icmp slt i32 %46, 0
  br i1 %47, label %48, label %59

48:                                               ; preds = %45
  %49 = load i64, ptr @H5E_REFERENCE_g, align 8, !tbaa !17
  %50 = load i64, ptr @H5E_CANTDEC_g, align 8, !tbaa !17
  %51 = tail call i32 (ptr, ptr, i32, i64, i64, ptr, ...) @H5E_printf_stack(ptr noundef nonnull @.str, ptr noundef nonnull @__func__.H5R__destroy, i32 noundef 367, i64 noundef %49, i64 noundef %50, ptr noundef nonnull @.str.9) #15
  br label %59

52:                                               ; preds = %41
  %53 = tail call i32 @H5I_dec_ref(i64 noundef %40) #15
  %54 = icmp slt i32 %53, 0
  br i1 %54, label %55, label %59

55:                                               ; preds = %52
  %56 = load i64, ptr @H5E_REFERENCE_g, align 8, !tbaa !17
  %57 = load i64, ptr @H5E_CANTDEC_g, align 8, !tbaa !17
  %58 = tail call i32 (ptr, ptr, i32, i64, i64, ptr, ...) @H5E_printf_stack(ptr noundef nonnull @.str, ptr noundef nonnull @__func__.H5R__destroy, i32 noundef 371, i64 noundef %56, i64 noundef %57, ptr noundef nonnull @.str.9) #15
  br label %59

59:                                               ; preds = %19, %28, %32, %48, %55, %45, %52, %38, %36, %1
  %.0 = phi i32 [ -1, %32 ], [ -1, %28 ], [ -1, %48 ], [ 0, %45 ], [ -1, %55 ], [ 0, %52 ], [ 0, %38 ], [ 0, %36 ], [ -1, %19 ], [ 0, %1 ]
  ret i32 %.0
}